; Function Attrs: nounwind uwtable
define noundef ptr @Mvc_CoverDup(ptr noundef %0) local_unnamed_addr #0 {
  %2 = getelementptr inbounds nuw i8, ptr %0, i64 72
  %3 = load ptr, ptr %2, align 8, !tbaa !9
  %4 = load ptr, ptr %3, align 8, !tbaa !3
  %5 = tail call ptr @Extra_MmFixedEntryFetch(ptr noundef %4) #7
  %6 = load ptr, ptr %2, align 8, !tbaa !9
  %7 = getelementptr inbounds nuw i8, ptr %5, i64 72
  store ptr %6, ptr %7, align 8, !tbaa !9
  %8 = getelementptr inbounds nuw i8, ptr %0, i64 8
  %9 = load i32, ptr %8, align 8, !tbaa !17
  %10 = getelementptr inbounds nuw i8, ptr %5, i64 8
  store i32 %9, ptr %10, align 8, !tbaa !17
  %11 = load i32, ptr %0, align 8, !tbaa !18
  store i32 %11, ptr %5, align 8, !tbaa !18
  %12 = getelementptr inbounds nuw i8, ptr %0, i64 4
  %13 = load i32, ptr %12, align 4, !tbaa !19
  %14 = getelementptr inbounds nuw i8, ptr %5, i64 4
  store i32 %13, ptr %14, align 4, !tbaa !19
  %15 = getelementptr inbounds nuw i8, ptr %5, i64 16
  %16 = getelementptr inbounds nuw i8, ptr %5, i64 48
  store i32 0, ptr %16, align 8, !tbaa !20
  %17 = getelementptr inbounds nuw i8, ptr %5, i64 40
  store ptr null, ptr %17, align 8, !tbaa !21
  %18 = getelementptr inbounds nuw i8, ptr %5, i64 56
  tail call void @llvm.memset.p0.i64(ptr noundef nonnull align 8 dereferenceable(20) %15, i8 0, i64 20, i1 false)
  tail call void @llvm.memset.p0.i64(ptr noundef nonnull align 8 dereferenceable(16) %18, i8 0, i64 16, i1 false)
  %19 = getelementptr inbounds nuw i8, ptr %0, i64 16
  %.017 = load ptr, ptr %19, align 8, !tbaa !22
  %.not18 = icmp eq ptr %.017, null
  br i1 %.not18, label %._crit_edge, label %.lr.ph

.lr.ph:                                           ; preds = %1
  %20 = getelementptr inbounds nuw i8, ptr %5, i64 24
  %21 = getelementptr inbounds nuw i8, ptr %5, i64 32
  br label %22

22:                                               ; preds = %.lr.ph, %29
  %.019 = phi ptr [ %.017, %.lr.ph ], [ %.0, %29 ]
  %23 = tail call ptr @Mvc_CubeDup(ptr noundef nonnull %0, ptr noundef nonnull %.019) #7
  %24 = load ptr, ptr %15, align 8, !tbaa !23
  %25 = icmp eq ptr %24, null
  br i1 %25, label %26, label %27

26:                                               ; preds = %22
  store ptr %23, ptr %15, align 8, !tbaa !23
  br label %29

27:                                               ; preds = %22
  %28 = load ptr, ptr %20, align 8, !tbaa !24
  store ptr %23, ptr %28, align 8, !tbaa !25
  br label %29

29:                                               ; preds = %27, %26
  store ptr %23, ptr %20, align 8, !tbaa !24
  store ptr null, ptr %23, align 8, !tbaa !25
  %30 = load i32, ptr %21, align 8, !tbaa !27
  %31 = add nsw i32 %30, 1
  store i32 %31, ptr %21, align 8, !tbaa !27
  %.0 = load ptr, ptr %.019, align 8, !tbaa !22
  %.not = icmp eq ptr %.0, null
  br i1 %.not, label %._crit_edge, label %22, !llvm.loop !28

._crit_edge:                                      ; preds = %29, %1
  ret ptr %5
}